; Function Attrs: mustprogress uwtable
define i64 @_ZN7memif_t11read_uint64Em(ptr noundef nonnull align 8 dereferenceable(16) %0, i64 noundef %1) unnamed_addr #0 align 2 personality ptr @__gxx_personality_v0 {
  %3 = alloca %class.target_endian.10, align 8
  store i64 0, ptr %3, align 8, !tbaa !30
  %4 = and i64 %1, 7
  %.not = icmp eq i64 %4, 0
  br i1 %.not, label %10, label %5

5:                                                ; preds = %2
  %6 = tail call ptr @__cxa_allocate_exception(i64 16) #9
  invoke void @_ZNSt13runtime_errorC1EPKc(ptr noundef nonnull align 8 dereferenceable(16) %6, ptr noundef nonnull @.str)
          to label %7 unwind label %8

7:                                                ; preds = %5
  tail call void @__cxa_throw(ptr nonnull %6, ptr nonnull @_ZTISt13runtime_error, ptr nonnull @_ZNSt13runtime_errorD1Ev) #10
  unreachable

8:                                                ; preds = %5
  %9 = landingpad { ptr, i32 }
          cleanup
  tail call void @__cxa_free_exception(ptr nonnull %6) #9
  resume { ptr, i32 } %9

10:                                               ; preds = %2
  %11 = load ptr, ptr %0, align 8, !tbaa !9
  %12 = getelementptr inbounds nuw i8, ptr %11, i64 16
  %13 = load ptr, ptr %12, align 8
  call void %13(ptr noundef nonnull align 8 dereferenceable(16) %0, i64 noundef %1, i64 noundef 8, ptr noundef nonnull %3)
  %14 = load i64, ptr %3, align 8
  ret i64 %14
}